target datalayout = "e-m:e-p270:32:32-p271:32:32-p272:64:64-i64:64-i128:128-f80:128-n8:16:32:64-S128"
target triple = "x86_64-pc-linux-gnu"

%"class.std::__1::DoIOSInit" = type { i8 }

@__dso_handle = external hidden global i8
@_ZZNSt3__18ios_base4InitC1EvE16init_the_streams = internal global %"class.std::__1::DoIOSInit" zeroinitializer, align 1
@_ZGVZNSt3__18ios_base4InitC1EvE16init_the_streams = internal global i64 0, align 8
@_ZNSt3__19DoIOSInitC1Ev = hidden unnamed_addr alias void (ptr), ptr @_ZNSt3__19DoIOSInitC2Ev
@_ZNSt3__19DoIOSInitD1Ev = hidden unnamed_addr alias void (ptr), ptr @_ZNSt3__19DoIOSInitD2Ev

; Function Attrs: mustprogress uwtable
define dso_local void @_ZNSt3__18ios_base4InitC2Ev(ptr noundef nonnull align 1 dereferenceable(1) %0) unnamed_addr #2 align 2 personality ptr @__gxx_personality_v0 {
  %2 = alloca ptr, align 8
  %3 = alloca ptr, align 8
  %4 = alloca i32, align 4
  store ptr %0, ptr %2, align 8, !tbaa !57
  %5 = load atomic i8, ptr @_ZGVZNSt3__18ios_base4InitC1EvE16init_the_streams acquire, align 8
  %6 = icmp eq i8 %5, 0
  br i1 %6, label %7, label %13, !prof !59

7:                                                ; preds = %1
  %8 = call i32 @__cxa_guard_acquire(ptr @_ZGVZNSt3__18ios_base4InitC1EvE16init_the_streams) #1
  %9 = icmp ne i32 %8, 0
  br i1 %9, label %10, label %13

10:                                               ; preds = %7
  invoke void @_ZNSt3__19DoIOSInitC1Ev(ptr noundef nonnull align 1 dereferenceable(1) @_ZZNSt3__18ios_base4InitC1EvE16init_the_streams)
          to label %11 unwind label %14

11:                                               ; preds = %10
  %12 = call i32 @__cxa_atexit(ptr @_ZNSt3__19DoIOSInitD1Ev, ptr @_ZZNSt3__18ios_base4InitC1EvE16init_the_streams, ptr @__dso_handle) #1
  call void @__cxa_guard_release(ptr @_ZGVZNSt3__18ios_base4InitC1EvE16init_the_streams) #1
  br label %13

13:                                               ; preds = %11, %7, %1
  ret void

14:                                               ; preds = %10
  %15 = landingpad { ptr, i32 }
          cleanup
  %16 = extractvalue { ptr, i32 } %15, 0
  store ptr %16, ptr %3, align 8
  %17 = extractvalue { ptr, i32 } %15, 1
  store i32 %17, ptr %4, align 4
  call void @__cxa_guard_abort(ptr @_ZGVZNSt3__18ios_base4InitC1EvE16init_the_streams) #1
  br label %18

18:                                               ; preds = %14
  %19 = load ptr, ptr %3, align 8
  %20 = load i32, ptr %4, align 4
  %21 = insertvalue { ptr, i32 } poison, ptr %19, 0
  %22 = insertvalue { ptr, i32 } %21, i32 %20, 1
  resume { ptr, i32 } %22
}