; Function Attrs: mustprogress uwtable
define dso_local void @_ZNSt3__18ios_base4InitC2Ev(ptr nonnull readnone align 1 captures(none) %0) unnamed_addr #1 align 2 personality ptr @__gxx_personality_v0 {
  %2 = load atomic i8, ptr @_ZGVZNSt3__18ios_base4InitC1EvE16init_the_streams acquire, align 8
  %3 = icmp eq i8 %2, 0
  br i1 %3, label %4, label %9, !prof !54

4:                                                ; preds = %1
  %5 = tail call i32 @__cxa_guard_acquire(ptr nonnull @_ZGVZNSt3__18ios_base4InitC1EvE16init_the_streams) #16
  %.not = icmp eq i32 %5, 0
  br i1 %.not, label %9, label %6

6:                                                ; preds = %4
  invoke void @_ZNSt3__19DoIOSInitC2Ev(ptr nonnull align 1 poison)
          to label %7 unwind label %10

7:                                                ; preds = %6
  %8 = tail call i32 @__cxa_atexit(ptr nonnull @_ZNSt3__19DoIOSInitD2Ev, ptr nonnull @_ZZNSt3__18ios_base4InitC1EvE16init_the_streams, ptr nonnull @__dso_handle) #16
  tail call void @__cxa_guard_release(ptr nonnull @_ZGVZNSt3__18ios_base4InitC1EvE16init_the_streams) #16
  br label %9

9:                                                ; preds = %7, %4, %1
  ret void

10:                                               ; preds = %6
  %11 = landingpad { ptr, i32 }
          cleanup
  tail call void @__cxa_guard_abort(ptr nonnull @_ZGVZNSt3__18ios_base4InitC1EvE16init_the_streams) #16
  resume { ptr, i32 } %11
}